target datalayout = "e-m:e-p270:32:32-p271:32:32-p272:64:64-i64:64-i128:128-f80:128-n8:16:32:64-S128"
target triple = "x86_64-pc-linux-gnu"

%struct.JNINativeInterface_ = type { ptr, ptr, ptr, ptr, ptr, ptr, ptr, ptr, ptr, ptr, ptr, ptr, ptr, ptr, ptr, ptr, ptr, ptr, ptr, ptr, ptr, ptr, ptr, ptr, ptr, ptr, ptr, ptr, ptr, ptr, ptr, ptr, ptr, ptr, ptr, ptr, ptr, ptr, ptr, ptr, ptr, ptr, ptr, ptr, ptr, ptr, ptr, ptr, ptr, ptr, ptr, ptr, ptr, ptr, ptr, ptr, ptr, ptr, ptr, ptr, ptr, ptr, ptr, ptr, ptr, ptr, ptr, ptr, ptr, ptr, ptr, ptr, ptr, ptr, ptr, ptr, ptr, ptr, ptr, ptr, ptr, ptr, ptr, ptr, ptr, ptr, ptr, ptr, ptr, ptr, ptr, ptr, ptr, ptr, ptr, ptr, ptr, ptr, ptr, ptr, ptr, ptr, ptr, ptr, ptr, ptr, ptr, ptr, ptr, ptr, ptr, ptr, ptr, ptr, ptr, ptr, ptr, ptr, ptr, ptr, ptr, ptr, ptr, ptr, ptr, ptr, ptr, ptr, ptr, ptr, ptr, ptr, ptr, ptr, ptr, ptr, ptr, ptr, ptr, ptr, ptr, ptr, ptr, ptr, ptr, ptr, ptr, ptr, ptr, ptr, ptr, ptr, ptr, ptr, ptr, ptr, ptr, ptr, ptr, ptr, ptr, ptr, ptr, ptr, ptr, ptr, ptr, ptr, ptr, ptr, ptr, ptr, ptr, ptr, ptr, ptr, ptr, ptr, ptr, ptr, ptr, ptr, ptr, ptr, ptr, ptr, ptr, ptr, ptr, ptr, ptr, ptr, ptr, ptr, ptr, ptr, ptr, ptr, ptr, ptr, ptr, ptr, ptr, ptr, ptr, ptr, ptr, ptr, ptr, ptr, ptr, ptr, ptr, ptr, ptr, ptr, ptr, ptr, ptr, ptr, ptr, ptr, ptr, ptr, ptr, ptr, ptr, ptr, ptr, ptr, ptr, ptr, ptr, ptr, ptr }
%struct._BufImgSDOps = type { %struct._SurfaceDataOps, ptr, i32, i32, i32, i32, ptr, ptr, i32, %struct.SurfaceDataBounds }
%struct._SurfaceDataOps = type { ptr, ptr, ptr, ptr, ptr, ptr, ptr }
%struct.SurfaceDataBounds = type { i32, i32, i32, i32 }
%struct.SurfaceDataRasInfo = type { %struct.SurfaceDataBounds, ptr, i32, i32, i32, i32, ptr, ptr, ptr, ptr, ptr, ptr, i32, %union.anon }
%union.anon = type { ptr, [56 x i8] }
%struct._BufImgRIPrivate = type { i32, ptr, ptr, ptr }

; Function Attrs: nounwind uwtable
define internal void @BufImg_Release(ptr noundef %0, ptr noundef %1, ptr noundef %2) #0 {
  %4 = alloca ptr, align 8
  %5 = alloca ptr, align 8
  %6 = alloca ptr, align 8
  %7 = alloca ptr, align 8
  %8 = alloca ptr, align 8
  %9 = alloca i32, align 4
  store ptr %0, ptr %4, align 8
  store ptr %1, ptr %5, align 8
  store ptr %2, ptr %6, align 8
  %10 = load ptr, ptr %5, align 8
  store ptr %10, ptr %7, align 8
  %11 = load ptr, ptr %6, align 8
  %12 = getelementptr inbounds %struct.SurfaceDataRasInfo, ptr %11, i32 0, i32 13
  store ptr %12, ptr %8, align 8
  %13 = load ptr, ptr %8, align 8
  %14 = getelementptr inbounds %struct._BufImgRIPrivate, ptr %13, i32 0, i32 1
  %15 = load ptr, ptr %14, align 8
  %16 = icmp ne ptr %15, null
  br i1 %16, label %17, label %36

17:                                               ; preds = %3
  %18 = load ptr, ptr %8, align 8
  %19 = getelementptr inbounds %struct._BufImgRIPrivate, ptr %18, i32 0, i32 0
  %20 = load i32, ptr %19, align 8
  %21 = and i32 %20, 2
  %22 = icmp ne i32 %21, 0
  %23 = select i1 %22, i32 0, i32 2
  store i32 %23, ptr %9, align 4
  %24 = load ptr, ptr %4, align 8
  %25 = load ptr, ptr %24, align 8
  %26 = getelementptr inbounds %struct.JNINativeInterface_, ptr %25, i32 0, i32 223
  %27 = load ptr, ptr %26, align 8
  %28 = load ptr, ptr %4, align 8
  %29 = load ptr, ptr %7, align 8
  %30 = getelementptr inbounds %struct._BufImgSDOps, ptr %29, i32 0, i32 1
  %31 = load ptr, ptr %30, align 8
  %32 = load ptr, ptr %8, align 8
  %33 = getelementptr inbounds %struct._BufImgRIPrivate, ptr %32, i32 0, i32 1
  %34 = load ptr, ptr %33, align 8
  %35 = load i32, ptr %9, align 4
  call void %27(ptr noundef %28, ptr noundef %31, ptr noundef %34, i32 noundef %35)
  br label %36

36:                                               ; preds = %17, %3
  %37 = load ptr, ptr %8, align 8
  %38 = getelementptr inbounds %struct._BufImgRIPrivate, ptr %37, i32 0, i32 2
  %39 = load ptr, ptr %38, align 8
  %40 = icmp ne ptr %39, null
  br i1 %40, label %41, label %53

41:                                               ; preds = %36
  %42 = load ptr, ptr %4, align 8
  %43 = load ptr, ptr %42, align 8
  %44 = getelementptr inbounds %struct.JNINativeInterface_, ptr %43, i32 0, i32 223
  %45 = load ptr, ptr %44, align 8
  %46 = load ptr, ptr %4, align 8
  %47 = load ptr, ptr %7, align 8
  %48 = getelementptr inbounds %struct._BufImgSDOps, ptr %47, i32 0, i32 7
  %49 = load ptr, ptr %48, align 8
  %50 = load ptr, ptr %8, align 8
  %51 = getelementptr inbounds %struct._BufImgRIPrivate, ptr %50, i32 0, i32 2
  %52 = load ptr, ptr %51, align 8
  call void %45(ptr noundef %46, ptr noundef %49, ptr noundef %52, i32 noundef 2)
  br label %53

53:                                               ; preds = %41, %36
  ret void
}