; Function Attrs: nounwind uwtable
define internal void @BufImg_Release(ptr noundef %0, ptr nocapture noundef readonly %1, ptr nocapture noundef readonly %2) #0 {
  %4 = getelementptr inbounds i8, ptr %2, i64 104
  %5 = load ptr, ptr %4, align 8
  %.not = icmp eq ptr %5, null
  br i1 %.not, label %16, label %6

6:                                                ; preds = %3
  %7 = getelementptr inbounds i8, ptr %2, i64 96
  %8 = load i32, ptr %7, align 8
  %9 = and i32 %8, 2
  %10 = xor i32 %9, 2
  %11 = load ptr, ptr %0, align 8
  %12 = getelementptr inbounds i8, ptr %11, i64 1784
  %13 = load ptr, ptr %12, align 8
  %14 = getelementptr inbounds i8, ptr %1, i64 56
  %15 = load ptr, ptr %14, align 8
  tail call void %13(ptr noundef nonnull %0, ptr noundef %15, ptr noundef nonnull %5, i32 noundef %10) #6
  br label %16

16:                                               ; preds = %6, %3
  %17 = getelementptr inbounds i8, ptr %2, i64 112
  %18 = load ptr, ptr %17, align 8
  %.not15 = icmp eq ptr %18, null
  br i1 %.not15, label %25, label %19

19:                                               ; preds = %16
  %20 = load ptr, ptr %0, align 8
  %21 = getelementptr inbounds i8, ptr %20, i64 1784
  %22 = load ptr, ptr %21, align 8
  %23 = getelementptr inbounds i8, ptr %1, i64 88
  %24 = load ptr, ptr %23, align 8
  tail call void %22(ptr noundef nonnull %0, ptr noundef %24, ptr noundef nonnull %18, i32 noundef 2) #6
  br label %25

25:                                               ; preds = %19, %16
  ret void
}